; Function Attrs: mustprogress nofree norecurse nosync nounwind willreturn memory(read, inaccessiblemem: none) uwtable
define hidden noundef zeroext i1 @_ZN3smt9seq_regex9is_memberEP4exprS2_(ptr noundef nonnull readonly align 8 captures(none) dereferenceable(228) %0, ptr noundef readnone captures(address) %1, ptr noundef readonly captures(address) %2) local_unnamed_addr #10 align 2 {
  %4 = load ptr, ptr %0, align 8, !tbaa !59
  %5 = getelementptr inbounds nuw i8, ptr %4, i64 1800
  %6 = load i32, ptr %5, align 8, !tbaa !159
  br label %7

7:                                                ; preds = %27, %3
  %.07 = phi ptr [ %2, %3 ], [ %29, %27 ]
  %8 = getelementptr inbounds nuw i8, ptr %.07, i64 4
  %9 = load i32, ptr %8, align 4
  %10 = and i32 %9, 65535
  %11 = icmp eq i32 %10, 0
  br i1 %11, label %12, label %33

12:                                               ; preds = %7
  %13 = getelementptr inbounds nuw i8, ptr %.07, i64 16
  %14 = load ptr, ptr %13, align 8, !tbaa !93
  %15 = getelementptr inbounds nuw i8, ptr %14, i64 24
  %16 = load ptr, ptr %15, align 8, !tbaa !98
  %.not.i.i.i.i.i = icmp eq ptr %16, null
  br i1 %.not.i.i.i.i.i, label %33, label %_ZNK8seq_util3rex8is_unionEPK4expr.exit.i

_ZNK8seq_util3rex8is_unionEPK4expr.exit.i:        ; preds = %12
  %17 = load i32, ptr %16, align 8, !tbaa !103
  %18 = icmp eq i32 %17, %6
  %19 = getelementptr inbounds nuw i8, ptr %16, i64 4
  %20 = load i32, ptr %19, align 4
  %21 = icmp eq i32 %20, 29
  %22 = select i1 %18, i1 %21, i1 false
  br i1 %22, label %23, label %33

23:                                               ; preds = %_ZNK8seq_util3rex8is_unionEPK4expr.exit.i
  %24 = getelementptr inbounds nuw i8, ptr %.07, i64 24
  %25 = load i32, ptr %24, align 8, !tbaa !107
  %26 = icmp eq i32 %25, 2
  br i1 %26, label %27, label %33

27:                                               ; preds = %23
  %28 = getelementptr inbounds nuw i8, ptr %.07, i64 32
  %29 = load ptr, ptr %28, align 8, !tbaa !61
  %30 = getelementptr inbounds nuw i8, ptr %.07, i64 40
  %31 = load ptr, ptr %30, align 8, !tbaa !61
  %32 = icmp eq ptr %1, %31
  br i1 %32, label %.loopexit, label %7, !llvm.loop !822

33:                                               ; preds = %23, %_ZNK8seq_util3rex8is_unionEPK4expr.exit.i, %7, %12
  %34 = icmp eq ptr %1, %.07
  br label %.loopexit

.loopexit:                                        ; preds = %27, %33
  %.0 = phi i1 [ %34, %33 ], [ true, %27 ]
  ret i1 %.0
}